target datalayout = "e-m:e-p270:32:32-p271:32:32-p272:64:64-i64:64-i128:128-f80:128-n8:16:32:64-S128"
target triple = "x86_64-pc-linux-gnu"

%struct.server_args = type { ptr, ptr, ptr, i8, i32 }

@.str.14 = private unnamed_addr constant [28 x i8] c"../openssl/test/http_test.c\00", align 1
@.str.48 = private unnamed_addr constant [6 x i8] c"/path\00", align 1
@.str.100 = private unnamed_addr constant [27 x i8] c"application/x-x509-ca-cert\00", align 1
@.str.114 = private unnamed_addr constant [2 x i8] c"0\00", align 1
@__const.test_http_keep_alive.mock_args = private unnamed_addr constant { ptr, ptr, ptr, i8, [3 x i8], i32 } { ptr null, ptr null, ptr null, i8 48, [3 x i8] zeroinitializer, i32 0 }, align 8
@.str.141 = private unnamed_addr constant [4 x i8] c"rsp\00", align 1
@.str.142 = private unnamed_addr constant [25 x i8] c"OSSL_HTTP_is_alive(rctx)\00", align 1
@.str.143 = private unnamed_addr constant [15 x i8] c"keep_alive > 0\00", align 1

; Function Attrs: nounwind uwtable
define internal i32 @test_http_keep_alive(i8 noundef signext %0, i32 noundef %1, i32 noundef %2) #0 {
  %4 = alloca i8, align 1
  %5 = alloca i32, align 4
  %6 = alloca i32, align 4
  %7 = alloca ptr, align 8
  %8 = alloca ptr, align 8
  %9 = alloca ptr, align 8
  %10 = alloca ptr, align 8
  %11 = alloca %struct.server_args, align 8
  %12 = alloca ptr, align 8
  %13 = alloca i32, align 4
  %14 = alloca i32, align 4
  store i8 %0, ptr %4, align 1, !tbaa !15
  store i32 %1, ptr %5, align 4, !tbaa !13
  store i32 %2, ptr %6, align 4, !tbaa !13
  call void @llvm.lifetime.start.p0(i64 8, ptr %7) #7
  %15 = call ptr @BIO_s_mem()
  %16 = call ptr @BIO_new(ptr noundef %15)
  store ptr %16, ptr %7, align 8, !tbaa !16
  call void @llvm.lifetime.start.p0(i64 8, ptr %8) #7
  %17 = call ptr @BIO_s_mem()
  %18 = call ptr @BIO_new(ptr noundef %17)
  store ptr %18, ptr %8, align 8, !tbaa !16
  call void @llvm.lifetime.start.p0(i64 8, ptr %9) #7
  call void @llvm.lifetime.start.p0(i64 8, ptr %10) #7
  store ptr @.str.100, ptr %10, align 8, !tbaa !11
  call void @llvm.lifetime.start.p0(i64 32, ptr %11) #7
  call void @llvm.memcpy.p0.p0.i64(ptr align 8 %11, ptr align 8 @__const.test_http_keep_alive.mock_args, i64 32, i1 false)
  call void @llvm.lifetime.start.p0(i64 8, ptr %12) #7
  store ptr null, ptr %12, align 8, !tbaa !35
  call void @llvm.lifetime.start.p0(i64 4, ptr %13) #7
  call void @llvm.lifetime.start.p0(i64 4, ptr %14) #7
  store i32 0, ptr %14, align 4, !tbaa !13
  %19 = load ptr, ptr %7, align 8, !tbaa !16
  %20 = icmp eq ptr %19, null
  br i1 %20, label %24, label %21

21:                                               ; preds = %3
  %22 = load ptr, ptr %8, align 8, !tbaa !16
  %23 = icmp eq ptr %22, null
  br i1 %23, label %24, label %25

24:                                               ; preds = %21, %3
  br label %98

25:                                               ; preds = %21
  %26 = load ptr, ptr %8, align 8, !tbaa !16
  %27 = getelementptr inbounds nuw %struct.server_args, ptr %11, i32 0, i32 0
  store ptr %26, ptr %27, align 8, !tbaa !22
  %28 = getelementptr inbounds nuw %struct.server_args, ptr %11, i32 0, i32 1
  store ptr @.str.100, ptr %28, align 8, !tbaa !23
  %29 = load i8, ptr %4, align 1, !tbaa !15
  %30 = getelementptr inbounds nuw %struct.server_args, ptr %11, i32 0, i32 3
  store i8 %29, ptr %30, align 8, !tbaa !29
  %31 = load i32, ptr %6, align 4, !tbaa !13
  %32 = getelementptr inbounds nuw %struct.server_args, ptr %11, i32 0, i32 4
  store i32 %31, ptr %32, align 4, !tbaa !30
  %33 = load ptr, ptr %7, align 8, !tbaa !16
  call void @BIO_set_callback_ex(ptr noundef %33, ptr noundef @http_bio_cb_ex)
  %34 = load ptr, ptr %7, align 8, !tbaa !16
  call void @BIO_set_callback_arg(ptr noundef %34, ptr noundef %11)
  store i32 1, ptr %14, align 4, !tbaa !13
  store i32 1, ptr %13, align 4, !tbaa !13
  br label %35

35:                                               ; preds = %91, %25
  %36 = load i32, ptr %14, align 4, !tbaa !13
  %37 = icmp ne i32 %36, 0
  br i1 %37, label %38, label %41

38:                                               ; preds = %35
  %39 = load i32, ptr %13, align 4, !tbaa !13
  %40 = icmp sle i32 %39, 2
  br label %41

41:                                               ; preds = %38, %35
  %42 = phi i1 [ false, %35 ], [ %40, %38 ]
  br i1 %42, label %43, label %94

43:                                               ; preds = %41
  %44 = load ptr, ptr %7, align 8, !tbaa !16
  %45 = load ptr, ptr %8, align 8, !tbaa !16
  %46 = load i32, ptr %5, align 4, !tbaa !13
  %47 = call ptr @OSSL_HTTP_transfer(ptr noundef %12, ptr noundef null, ptr noundef null, ptr noundef @.str.48, i32 noundef 0, ptr noundef null, ptr noundef null, ptr noundef %44, ptr noundef %45, ptr noundef null, ptr noundef null, i32 noundef 0, ptr noundef null, ptr noundef null, ptr noundef null, ptr noundef @.str.100, i32 noundef 0, i64 noundef 0, i32 noundef 0, i32 noundef %46)
  store ptr %47, ptr %9, align 8, !tbaa !16
  %48 = load i32, ptr %5, align 4, !tbaa !13
  %49 = icmp eq i32 %48, 2
  br i1 %49, label %50, label %68

50:                                               ; preds = %43
  %51 = load i32, ptr %6, align 4, !tbaa !13
  %52 = icmp eq i32 %51, 0
  br i1 %52, label %53, label %68

53:                                               ; preds = %50
  %54 = load i32, ptr %14, align 4, !tbaa !13
  %55 = icmp ne i32 %54, 0
  br i1 %55, label %56, label %65

56:                                               ; preds = %53
  %57 = load ptr, ptr %9, align 8, !tbaa !16
  %58 = call i32 @test_ptr_null(ptr noundef @.str.14, i32 noundef 268, ptr noundef @.str.141, ptr noundef %57)
  %59 = icmp ne i32 %58, 0
  br i1 %59, label %60, label %65

60:                                               ; preds = %56
  %61 = load ptr, ptr %12, align 8, !tbaa !35
  %62 = call i32 @OSSL_HTTP_is_alive(ptr noundef %61)
  %63 = call i32 @test_int_eq(ptr noundef @.str.14, i32 noundef 269, ptr noundef @.str.142, ptr noundef @.str.114, i32 noundef %62, i32 noundef 0)
  %64 = icmp ne i32 %63, 0
  br label %65

65:                                               ; preds = %60, %56, %53
  %66 = phi i1 [ false, %56 ], [ false, %53 ], [ %64, %60 ]
  %67 = zext i1 %66 to i32
  store i32 %67, ptr %14, align 4, !tbaa !13
  br label %86

68:                                               ; preds = %50, %43
  %69 = load i32, ptr %14, align 4, !tbaa !13
  %70 = icmp ne i32 %69, 0
  br i1 %70, label %71, label %83

71:                                               ; preds = %68
  %72 = load ptr, ptr %9, align 8, !tbaa !16
  %73 = call i32 @test_ptr(ptr noundef @.str.14, i32 noundef 271, ptr noundef @.str.141, ptr noundef %72)
  %74 = icmp ne i32 %73, 0
  br i1 %74, label %75, label %83

75:                                               ; preds = %71
  %76 = load ptr, ptr %12, align 8, !tbaa !35
  %77 = call i32 @OSSL_HTTP_is_alive(ptr noundef %76)
  %78 = load i32, ptr %5, align 4, !tbaa !13
  %79 = icmp sgt i32 %78, 0
  %80 = zext i1 %79 to i32
  %81 = call i32 @test_int_eq(ptr noundef @.str.14, i32 noundef 272, ptr noundef @.str.142, ptr noundef @.str.143, i32 noundef %77, i32 noundef %80)
  %82 = icmp ne i32 %81, 0
  br label %83

83:                                               ; preds = %75, %71, %68
  %84 = phi i1 [ false, %71 ], [ false, %68 ], [ %82, %75 ]
  %85 = zext i1 %84 to i32
  store i32 %85, ptr %14, align 4, !tbaa !13
  br label %86

86:                                               ; preds = %83, %65
  %87 = load ptr, ptr %9, align 8, !tbaa !16
  %88 = call i32 @BIO_free(ptr noundef %87)
  %89 = load ptr, ptr %8, align 8, !tbaa !16
  %90 = call i64 @BIO_ctrl(ptr noundef %89, i32 noundef 1, i64 noundef 0, ptr noundef null)
  store i32 0, ptr %5, align 4, !tbaa !13
  br label %91

91:                                               ; preds = %86
  %92 = load i32, ptr %13, align 4, !tbaa !13
  %93 = add nsw i32 %92, 1
  store i32 %93, ptr %13, align 4, !tbaa !13
  br label %35, !llvm.loop !37

94:                                               ; preds = %41
  %95 = load ptr, ptr %12, align 8, !tbaa !35
  %96 = load i32, ptr %14, align 4, !tbaa !13
  %97 = call i32 @OSSL_HTTP_close(ptr noundef %95, i32 noundef %96)
  br label %98

98:                                               ; preds = %94, %24
  %99 = load ptr, ptr %7, align 8, !tbaa !16
  %100 = call i32 @BIO_free(ptr noundef %99)
  %101 = load ptr, ptr %8, align 8, !tbaa !16
  %102 = call i32 @BIO_free(ptr noundef %101)
  %103 = load i32, ptr %14, align 4, !tbaa !13
  call void @llvm.lifetime.end.p0(i64 4, ptr %14) #7
  call void @llvm.lifetime.end.p0(i64 4, ptr %13) #7
  call void @llvm.lifetime.end.p0(i64 8, ptr %12) #7
  call void @llvm.lifetime.end.p0(i64 32, ptr %11) #7
  call void @llvm.lifetime.end.p0(i64 8, ptr %10) #7
  call void @llvm.lifetime.end.p0(i64 8, ptr %9) #7
  call void @llvm.lifetime.end.p0(i64 8, ptr %8) #7
  call void @llvm.lifetime.end.p0(i64 8, ptr %7) #7
  ret i32 %103
}