; Function Attrs: nounwind uwtable
define internal fastcc range(i32 0, 2) i32 @test_http_keep_alive(i8 noundef signext range(i8 48, 50) %0, i32 noundef range(i32 0, 3) %1, i32 noundef range(i32 0, 2) %2) unnamed_addr #0 {
  %4 = alloca %struct.server_args, align 8
  %5 = alloca ptr, align 8
  %6 = tail call ptr @BIO_s_mem() #9
  %7 = tail call ptr @BIO_new(ptr noundef %6) #9
  %8 = tail call ptr @BIO_s_mem() #9
  %9 = tail call ptr @BIO_new(ptr noundef %8) #9
  call void @llvm.lifetime.start.p0(i64 32, ptr nonnull %4) #9
  call void @llvm.memcpy.p0.p0.i64(ptr noundef nonnull align 8 dereferenceable(32) %4, ptr noundef nonnull align 8 dereferenceable(32) @__const.test_http_resp_hdr_limit.mock_args, i64 32, i1 false)
  call void @llvm.lifetime.start.p0(i64 8, ptr nonnull %5) #9
  store ptr null, ptr %5, align 8, !tbaa !25
  %10 = icmp eq ptr %7, null
  %11 = icmp eq ptr %9, null
  %or.cond = select i1 %10, i1 true, i1 %11
  br i1 %or.cond, label %45, label %12

12:                                               ; preds = %3
  store ptr %9, ptr %4, align 8, !tbaa !19
  %13 = getelementptr inbounds nuw i8, ptr %4, i64 8
  store ptr @.str.100, ptr %13, align 8, !tbaa !20
  %14 = getelementptr inbounds nuw i8, ptr %4, i64 24
  store i8 %0, ptr %14, align 8, !tbaa !21
  %15 = getelementptr inbounds nuw i8, ptr %4, i64 28
  store i32 %2, ptr %15, align 4, !tbaa !22
  tail call void @BIO_set_callback_ex(ptr noundef nonnull %7, ptr noundef nonnull @http_bio_cb_ex) #9
  call void @BIO_set_callback_arg(ptr noundef nonnull %7, ptr noundef nonnull %4) #9
  %16 = icmp eq i32 %2, 0
  br label %17

17:                                               ; preds = %12, %36
  %.02834 = phi i32 [ 1, %12 ], [ %39, %36 ]
  %.02933 = phi i32 [ %1, %12 ], [ 0, %36 ]
  %18 = call ptr @OSSL_HTTP_transfer(ptr noundef nonnull %5, ptr noundef null, ptr noundef null, ptr noundef nonnull @.str.48, i32 noundef 0, ptr noundef null, ptr noundef null, ptr noundef nonnull %7, ptr noundef %9, ptr noundef null, ptr noundef null, i32 noundef 0, ptr noundef null, ptr noundef null, ptr noundef null, ptr noundef nonnull @.str.100, i32 noundef 0, i64 noundef 0, i32 noundef 0, i32 noundef %.02933) #9
  %19 = icmp eq i32 %.02933, 2
  %or.cond3 = and i1 %16, %19
  br i1 %or.cond3, label %20, label %27

20:                                               ; preds = %17
  %21 = call i32 @test_ptr_null(ptr noundef nonnull @.str.14, i32 noundef 268, ptr noundef nonnull @.str.141, ptr noundef %18) #9
  %.not32 = icmp eq i32 %21, 0
  br i1 %.not32, label %36, label %22

22:                                               ; preds = %20
  %23 = load ptr, ptr %5, align 8, !tbaa !25
  %24 = call i32 @OSSL_HTTP_is_alive(ptr noundef %23) #9
  %25 = call i32 @test_int_eq(ptr noundef nonnull @.str.14, i32 noundef 269, ptr noundef nonnull @.str.142, ptr noundef nonnull @.str.114, i32 noundef %24, i32 noundef 0) #9
  %26 = icmp ne i32 %25, 0
  br label %36

27:                                               ; preds = %17
  %28 = call i32 @test_ptr(ptr noundef nonnull @.str.14, i32 noundef 271, ptr noundef nonnull @.str.141, ptr noundef %18) #9
  %.not = icmp eq i32 %28, 0
  br i1 %.not, label %36, label %29

29:                                               ; preds = %27
  %30 = load ptr, ptr %5, align 8, !tbaa !25
  %31 = call i32 @OSSL_HTTP_is_alive(ptr noundef %30) #9
  %32 = icmp ne i32 %.02933, 0
  %33 = zext i1 %32 to i32
  %34 = call i32 @test_int_eq(ptr noundef nonnull @.str.14, i32 noundef 272, ptr noundef nonnull @.str.142, ptr noundef nonnull @.str.143, i32 noundef %31, i32 noundef %33) #9
  %35 = icmp ne i32 %34, 0
  br label %36

36:                                               ; preds = %27, %29, %20, %22
  %.2.shrunk = phi i1 [ false, %20 ], [ %26, %22 ], [ false, %27 ], [ %35, %29 ]
  %37 = call i32 @BIO_free(ptr noundef %18) #9
  %38 = call i64 @BIO_ctrl(ptr noundef %9, i32 noundef 1, i64 noundef 0, ptr noundef null) #9
  %39 = add nuw nsw i32 %.02834, 1
  %40 = icmp samesign ult i32 %.02834, 2
  %41 = select i1 %.2.shrunk, i1 %40, i1 false
  br i1 %41, label %17, label %42, !llvm.loop !27

42:                                               ; preds = %36
  %.2 = zext i1 %.2.shrunk to i32
  %43 = load ptr, ptr %5, align 8, !tbaa !25
  %44 = call i32 @OSSL_HTTP_close(ptr noundef %43, i32 noundef %.2) #9
  br label %45

45:                                               ; preds = %3, %42
  %.0 = phi i32 [ 0, %3 ], [ %.2, %42 ]
  %46 = call i32 @BIO_free(ptr noundef %7) #9
  %47 = call i32 @BIO_free(ptr noundef %9) #9
  call void @llvm.lifetime.end.p0(i64 8, ptr nonnull %5) #9
  call void @llvm.lifetime.end.p0(i64 32, ptr nonnull %4) #9
  ret i32 %.0
}